target datalayout = "e-m:e-p270:32:32-p271:32:32-p272:64:64-i64:64-i128:128-f80:128-n8:16:32:64-S128"
target triple = "x86_64-pc-linux-gnu"

%struct.ripper = type { ptr, i32, %union.anon }
%union.anon = type { %struct.lex_pointer_string }
%struct.lex_pointer_string = type { i64, i64 }

; Function Attrs: nounwind sspstrong uwtable
define internal void @ripper_parser_mark2(ptr noundef %0) #0 {
  %2 = alloca ptr, align 8
  %3 = alloca ptr, align 8
  store ptr %0, ptr %2, align 8, !tbaa !25
  call void @llvm.lifetime.start.p0(i64 8, ptr %3) #16
  %4 = load ptr, ptr %2, align 8, !tbaa !25
  store ptr %4, ptr %3, align 8, !tbaa !19
  %5 = load ptr, ptr %3, align 8, !tbaa !19
  %6 = getelementptr inbounds nuw %struct.ripper, ptr %5, i32 0, i32 0
  %7 = load ptr, ptr %6, align 8, !tbaa !21
  %8 = icmp ne ptr %7, null
  br i1 %8, label %9, label %30

9:                                                ; preds = %1
  %10 = load ptr, ptr %3, align 8, !tbaa !19
  %11 = getelementptr inbounds nuw %struct.ripper, ptr %10, i32 0, i32 0
  %12 = load ptr, ptr %11, align 8, !tbaa !21
  call void @ripper_parser_mark(ptr noundef %12)
  %13 = load ptr, ptr %3, align 8, !tbaa !19
  %14 = getelementptr inbounds nuw %struct.ripper, ptr %13, i32 0, i32 1
  %15 = load i32, ptr %14, align 8, !tbaa !26
  switch i32 %15, label %29 [
    i32 0, label %16
    i32 1, label %21
    i32 2, label %25
  ]

16:                                               ; preds = %9
  %17 = load ptr, ptr %3, align 8, !tbaa !19
  %18 = getelementptr inbounds nuw %struct.ripper, ptr %17, i32 0, i32 2
  %19 = getelementptr inbounds nuw %struct.lex_pointer_string, ptr %18, i32 0, i32 0
  %20 = load i64, ptr %19, align 8, !tbaa !27
  call void @rb_gc_mark(i64 noundef %20)
  br label %29

21:                                               ; preds = %9
  %22 = load ptr, ptr %3, align 8, !tbaa !19
  %23 = getelementptr inbounds nuw %struct.ripper, ptr %22, i32 0, i32 2
  %24 = load i64, ptr %23, align 8, !tbaa !27
  call void @rb_gc_mark(i64 noundef %24)
  br label %29

25:                                               ; preds = %9
  %26 = load ptr, ptr %3, align 8, !tbaa !19
  %27 = getelementptr inbounds nuw %struct.ripper, ptr %26, i32 0, i32 2
  %28 = load i64, ptr %27, align 8, !tbaa !27
  call void @rb_gc_mark(i64 noundef %28)
  br label %29

29:                                               ; preds = %9, %25, %21, %16
  br label %30

30:                                               ; preds = %29, %1
  call void @llvm.lifetime.end.p0(i64 8, ptr %3) #16
  ret void
}