; Function Attrs: nounwind sspstrong uwtable
define internal void @ripper_parser_mark2(ptr noundef readonly captures(none) %0) #0 {
  %2 = load ptr, ptr %0, align 8, !tbaa !18
  %.not = icmp eq ptr %2, null
  br i1 %.not, label %8, label %3

3:                                                ; preds = %1
  tail call void @ripper_parser_mark(ptr noundef nonnull %2) #5
  %4 = getelementptr inbounds nuw i8, ptr %0, i64 8
  %5 = load i32, ptr %4, align 8, !tbaa !26
  %switch = icmp ult i32 %5, 3
  br i1 %switch, label %.sink.split, label %8

.sink.split:                                      ; preds = %3
  %6 = getelementptr inbounds nuw i8, ptr %0, i64 16
  %7 = load i64, ptr %6, align 8, !tbaa !27
  tail call void @rb_gc_mark(i64 noundef %7) #5
  br label %8

8:                                                ; preds = %3, %.sink.split, %1
  ret void
}